target datalayout = "e-m:e-p270:32:32-p271:32:32-p272:64:64-i64:64-i128:128-f80:128-n8:16:32:64-S128"
target triple = "x86_64-pc-linux-gnu"

%struct.FDR_Runtime_Args = type { ptr, i64, ptr, i64, i64, ptr, ptr, ptr, i64 }
%struct.FDR = type { i32, i32, i32, i32, i32, i32, i8, i8, i16, i32, <2 x i64> }

@fake_history = internal constant [16 x i8] zeroinitializer, align 16

; Function Attrs: alwaysinline nounwind uwtable
define internal ptr @nextFloodDetect(ptr noundef %0, i64 noundef %1, i32 noundef %2) #2 {
  %4 = alloca ptr, align 8
  %5 = alloca ptr, align 8
  %6 = alloca i64, align 8
  %7 = alloca i32, align 4
  %8 = alloca i64, align 8
  %9 = alloca i64, align 8
  %10 = alloca i32, align 4
  %11 = alloca i64, align 8
  %12 = alloca i64, align 8
  %13 = alloca i64, align 8
  %14 = alloca i64, align 8
  store ptr %0, ptr %5, align 8
  store i64 %1, ptr %6, align 8
  store i32 %2, ptr %7, align 4
  %15 = load i64, ptr %6, align 8
  %16 = icmp ult i64 %15, 256
  br i1 %16, label %17, label %21

17:                                               ; preds = %3
  %18 = load ptr, ptr %5, align 8
  %19 = load i64, ptr %6, align 8
  %20 = getelementptr inbounds nuw i8, ptr %18, i64 %19
  store ptr %20, ptr %4, align 8
  br label %105

21:                                               ; preds = %3
  call void @llvm.lifetime.start.p0(i64 8, ptr %8) #9
  %22 = load ptr, ptr %5, align 8
  %23 = ptrtoint ptr %22 to i64
  %24 = add i64 %23, 7
  %25 = and i64 %24, -8
  %26 = inttoptr i64 %25 to ptr
  %27 = load i64, ptr %26, align 8
  store i64 %27, ptr %8, align 8
  call void @llvm.lifetime.start.p0(i64 8, ptr %9) #9
  %28 = load ptr, ptr %5, align 8
  %29 = getelementptr inbounds i8, ptr %28, i64 8
  %30 = ptrtoint ptr %29 to i64
  %31 = add i64 %30, 7
  %32 = and i64 %31, -8
  %33 = inttoptr i64 %32 to ptr
  %34 = load i64, ptr %33, align 8
  store i64 %34, ptr %9, align 8
  %35 = load i64, ptr %8, align 8
  %36 = load i64, ptr %9, align 8
  %37 = icmp eq i64 %35, %36
  br i1 %37, label %38, label %43

38:                                               ; preds = %21
  %39 = load ptr, ptr %5, align 8
  %40 = load i32, ptr %7, align 4
  %41 = zext i32 %40 to i64
  %42 = getelementptr inbounds nuw i8, ptr %39, i64 %41
  store ptr %42, ptr %4, align 8
  store i32 1, ptr %10, align 4
  br label %104

43:                                               ; preds = %21
  call void @llvm.lifetime.start.p0(i64 8, ptr %11) #9
  %44 = load ptr, ptr %5, align 8
  %45 = load i64, ptr %6, align 8
  %46 = udiv i64 %45, 2
  %47 = getelementptr inbounds nuw i8, ptr %44, i64 %46
  %48 = ptrtoint ptr %47 to i64
  %49 = add i64 %48, 7
  %50 = and i64 %49, -8
  %51 = inttoptr i64 %50 to ptr
  %52 = load i64, ptr %51, align 8
  store i64 %52, ptr %11, align 8
  call void @llvm.lifetime.start.p0(i64 8, ptr %12) #9
  %53 = load ptr, ptr %5, align 8
  %54 = load i64, ptr %6, align 8
  %55 = udiv i64 %54, 2
  %56 = getelementptr inbounds nuw i8, ptr %53, i64 %55
  %57 = getelementptr inbounds i8, ptr %56, i64 8
  %58 = ptrtoint ptr %57 to i64
  %59 = add i64 %58, 7
  %60 = and i64 %59, -8
  %61 = inttoptr i64 %60 to ptr
  %62 = load i64, ptr %61, align 8
  store i64 %62, ptr %12, align 8
  %63 = load i64, ptr %11, align 8
  %64 = load i64, ptr %12, align 8
  %65 = icmp eq i64 %63, %64
  br i1 %65, label %66, label %71

66:                                               ; preds = %43
  %67 = load ptr, ptr %5, align 8
  %68 = load i32, ptr %7, align 4
  %69 = zext i32 %68 to i64
  %70 = getelementptr inbounds nuw i8, ptr %67, i64 %69
  store ptr %70, ptr %4, align 8
  store i32 1, ptr %10, align 4
  br label %103

71:                                               ; preds = %43
  call void @llvm.lifetime.start.p0(i64 8, ptr %13) #9
  %72 = load ptr, ptr %5, align 8
  %73 = load i64, ptr %6, align 8
  %74 = getelementptr inbounds nuw i8, ptr %72, i64 %73
  %75 = getelementptr inbounds i8, ptr %74, i64 -24
  %76 = ptrtoint ptr %75 to i64
  %77 = add i64 %76, 7
  %78 = and i64 %77, -8
  %79 = inttoptr i64 %78 to ptr
  %80 = load i64, ptr %79, align 8
  store i64 %80, ptr %13, align 8
  call void @llvm.lifetime.start.p0(i64 8, ptr %14) #9
  %81 = load ptr, ptr %5, align 8
  %82 = load i64, ptr %6, align 8
  %83 = getelementptr inbounds nuw i8, ptr %81, i64 %82
  %84 = getelementptr inbounds i8, ptr %83, i64 -16
  %85 = ptrtoint ptr %84 to i64
  %86 = add i64 %85, 7
  %87 = and i64 %86, -8
  %88 = inttoptr i64 %87 to ptr
  %89 = load i64, ptr %88, align 8
  store i64 %89, ptr %14, align 8
  %90 = load i64, ptr %13, align 8
  %91 = load i64, ptr %14, align 8
  %92 = icmp eq i64 %90, %91
  br i1 %92, label %93, label %98

93:                                               ; preds = %71
  %94 = load ptr, ptr %5, align 8
  %95 = load i32, ptr %7, align 4
  %96 = zext i32 %95 to i64
  %97 = getelementptr inbounds nuw i8, ptr %94, i64 %96
  store ptr %97, ptr %4, align 8
  store i32 1, ptr %10, align 4
  br label %102

98:                                               ; preds = %71
  %99 = load ptr, ptr %5, align 8
  %100 = load i64, ptr %6, align 8
  %101 = getelementptr inbounds nuw i8, ptr %99, i64 %100
  store ptr %101, ptr %4, align 8
  store i32 1, ptr %10, align 4
  br label %102

102:                                              ; preds = %98, %93
  call void @llvm.lifetime.end.p0(i64 8, ptr %14) #9
  call void @llvm.lifetime.end.p0(i64 8, ptr %13) #9
  br label %103

103:                                              ; preds = %102, %66
  call void @llvm.lifetime.end.p0(i64 8, ptr %12) #9
  call void @llvm.lifetime.end.p0(i64 8, ptr %11) #9
  br label %104

104:                                              ; preds = %103, %38
  call void @llvm.lifetime.end.p0(i64 8, ptr %9) #9
  call void @llvm.lifetime.end.p0(i64 8, ptr %8) #9
  br label %105

105:                                              ; preds = %104, %17
  %106 = load ptr, ptr %4, align 8
  ret ptr %106
}

; Function Attrs: nounwind uwtable
define hidden i32 @fdrExec(ptr noundef %0, ptr noundef %1, i64 noundef %2, i64 noundef %3, ptr noundef %4, ptr noundef %5, i64 noundef %6) #0 {
  %8 = alloca i32, align 4
  %9 = alloca ptr, align 8
  %10 = alloca ptr, align 8
  %11 = alloca i64, align 8
  %12 = alloca i64, align 8
  %13 = alloca ptr, align 8
  %14 = alloca ptr, align 8
  %15 = alloca i64, align 8
  %16 = alloca ptr, align 8
  %17 = alloca %struct.FDR_Runtime_Args, align 8
  %18 = alloca i32, align 4
  store ptr %0, ptr %9, align 8
  store ptr %1, ptr %10, align 8
  store i64 %2, ptr %11, align 8
  store i64 %3, ptr %12, align 8
  store ptr %4, ptr %13, align 8
  store ptr %5, ptr %14, align 8
  store i64 %6, ptr %15, align 8
  call void @llvm.lifetime.start.p0(i64 8, ptr %16) #9
  store ptr getelementptr inbounds (i8, ptr @fake_history, i64 16), ptr %16, align 8
  call void @llvm.lifetime.start.p0(i64 72, ptr %17) #9
  %19 = getelementptr inbounds nuw %struct.FDR_Runtime_Args, ptr %17, i32 0, i32 0
  %20 = load ptr, ptr %10, align 8
  store ptr %20, ptr %19, align 8
  %21 = getelementptr inbounds nuw %struct.FDR_Runtime_Args, ptr %17, i32 0, i32 1
  %22 = load i64, ptr %11, align 8
  store i64 %22, ptr %21, align 8
  %23 = getelementptr inbounds nuw %struct.FDR_Runtime_Args, ptr %17, i32 0, i32 2
  %24 = load ptr, ptr %16, align 8
  store ptr %24, ptr %23, align 8
  %25 = getelementptr inbounds nuw %struct.FDR_Runtime_Args, ptr %17, i32 0, i32 3
  store i64 0, ptr %25, align 8
  %26 = getelementptr inbounds nuw %struct.FDR_Runtime_Args, ptr %17, i32 0, i32 4
  %27 = load i64, ptr %12, align 8
  store i64 %27, ptr %26, align 8
  %28 = getelementptr inbounds nuw %struct.FDR_Runtime_Args, ptr %17, i32 0, i32 5
  %29 = load ptr, ptr %13, align 8
  store ptr %29, ptr %28, align 8
  %30 = getelementptr inbounds nuw %struct.FDR_Runtime_Args, ptr %17, i32 0, i32 6
  %31 = load ptr, ptr %14, align 8
  store ptr %31, ptr %30, align 8
  %32 = getelementptr inbounds nuw %struct.FDR_Runtime_Args, ptr %17, i32 0, i32 7
  %33 = load ptr, ptr %10, align 8
  %34 = load i64, ptr %11, align 8
  %35 = call ptr @nextFloodDetect(ptr noundef %33, i64 noundef %34, i32 noundef 32)
  store ptr %35, ptr %32, align 8
  %36 = getelementptr inbounds nuw %struct.FDR_Runtime_Args, ptr %17, i32 0, i32 8
  store i64 0, ptr %36, align 8
  %37 = getelementptr inbounds nuw %struct.FDR_Runtime_Args, ptr %17, i32 0, i32 4
  %38 = load i64, ptr %37, align 8
  %39 = getelementptr inbounds nuw %struct.FDR_Runtime_Args, ptr %17, i32 0, i32 1
  %40 = load i64, ptr %39, align 8
  %41 = icmp uge i64 %38, %40
  %42 = xor i1 %41, true
  %43 = xor i1 %42, true
  %44 = zext i1 %43 to i32
  %45 = sext i32 %44 to i64
  %46 = call i64 @llvm.expect.i64(i64 %45, i64 0)
  %47 = icmp ne i64 %46, 0
  br i1 %47, label %48, label %49

48:                                               ; preds = %7
  store i32 0, ptr %8, align 4
  store i32 1, ptr %18, align 4
  br label %59

49:                                               ; preds = %7
  %50 = load ptr, ptr %9, align 8
  %51 = getelementptr inbounds nuw %struct.FDR, ptr %50, i32 0, i32 0
  %52 = load i32, ptr %51, align 16
  %53 = zext i32 %52 to i64
  %54 = getelementptr inbounds nuw [19 x ptr], ptr @funcs, i64 0, i64 %53
  %55 = load ptr, ptr %54, align 8
  %56 = load ptr, ptr %9, align 8
  %57 = load i64, ptr %15, align 8
  %58 = call i32 %55(ptr noundef %56, ptr noundef %17, i64 noundef %57)
  store i32 %58, ptr %8, align 4
  store i32 1, ptr %18, align 4
  br label %59

59:                                               ; preds = %49, %48
  call void @llvm.lifetime.end.p0(i64 72, ptr %17) #9
  call void @llvm.lifetime.end.p0(i64 8, ptr %16) #9
  %60 = load i32, ptr %8, align 4
  ret i32 %60
}