; Function Attrs: nounwind uwtable
define hidden i32 @fdrExec(ptr noundef %0, ptr noundef %1, i64 noundef %2, i64 noundef %3, ptr noundef %4, ptr noundef %5, i64 noundef %6) local_unnamed_addr #0 {
  %8 = alloca %struct.FDR_Runtime_Args, align 8
  call void @llvm.lifetime.start.p0(i64 72, ptr nonnull %8) #8
  store ptr %1, ptr %8, align 8
  %9 = getelementptr inbounds nuw i8, ptr %8, i64 8
  store i64 %2, ptr %9, align 8
  %10 = getelementptr inbounds nuw i8, ptr %8, i64 16
  store ptr getelementptr inbounds nuw (i8, ptr @fake_history, i64 16), ptr %10, align 8
  %11 = getelementptr inbounds nuw i8, ptr %8, i64 24
  store i64 0, ptr %11, align 8
  %12 = getelementptr inbounds nuw i8, ptr %8, i64 32
  store i64 %3, ptr %12, align 8
  %13 = getelementptr inbounds nuw i8, ptr %8, i64 40
  store ptr %4, ptr %13, align 8
  %14 = getelementptr inbounds nuw i8, ptr %8, i64 48
  store ptr %5, ptr %14, align 8
  %15 = getelementptr inbounds nuw i8, ptr %8, i64 56
  %16 = icmp ult i64 %2, 256
  br i1 %16, label %17, label %19

17:                                               ; preds = %7
  %18 = getelementptr inbounds nuw i8, ptr %1, i64 %2
  br label %nextFloodDetect.exit

19:                                               ; preds = %7
  %20 = ptrtoint ptr %1 to i64
  %21 = add i64 %20, 7
  %22 = and i64 %21, -8
  %23 = inttoptr i64 %22 to ptr
  %24 = load i64, ptr %23, align 8
  %25 = getelementptr inbounds nuw i8, ptr %1, i64 8
  %26 = ptrtoint ptr %25 to i64
  %27 = add i64 %26, 7
  %28 = and i64 %27, -8
  %29 = inttoptr i64 %28 to ptr
  %30 = load i64, ptr %29, align 8
  %31 = icmp eq i64 %24, %30
  br i1 %31, label %32, label %34

32:                                               ; preds = %19
  %33 = getelementptr inbounds nuw i8, ptr %1, i64 32
  br label %nextFloodDetect.exit

34:                                               ; preds = %19
  %35 = lshr i64 %2, 1
  %36 = getelementptr inbounds nuw i8, ptr %1, i64 %35
  %37 = ptrtoint ptr %36 to i64
  %38 = add i64 %37, 7
  %39 = and i64 %38, -8
  %40 = inttoptr i64 %39 to ptr
  %41 = load i64, ptr %40, align 8
  %42 = getelementptr inbounds nuw i8, ptr %36, i64 8
  %43 = ptrtoint ptr %42 to i64
  %44 = add i64 %43, 7
  %45 = and i64 %44, -8
  %46 = inttoptr i64 %45 to ptr
  %47 = load i64, ptr %46, align 8
  %48 = icmp eq i64 %41, %47
  br i1 %48, label %49, label %51

49:                                               ; preds = %34
  %50 = getelementptr inbounds nuw i8, ptr %1, i64 32
  br label %nextFloodDetect.exit

51:                                               ; preds = %34
  %52 = getelementptr inbounds nuw i8, ptr %1, i64 %2
  %53 = getelementptr inbounds i8, ptr %52, i64 -24
  %54 = ptrtoint ptr %53 to i64
  %55 = add i64 %54, 7
  %56 = and i64 %55, -8
  %57 = inttoptr i64 %56 to ptr
  %58 = load i64, ptr %57, align 8
  %59 = getelementptr inbounds i8, ptr %52, i64 -16
  %60 = ptrtoint ptr %59 to i64
  %61 = add i64 %60, 7
  %62 = and i64 %61, -8
  %63 = inttoptr i64 %62 to ptr
  %64 = load i64, ptr %63, align 8
  %65 = icmp eq i64 %58, %64
  %66 = getelementptr inbounds nuw i8, ptr %1, i64 32
  %.3.i = select i1 %65, ptr %66, ptr %52
  br label %nextFloodDetect.exit

nextFloodDetect.exit:                             ; preds = %17, %32, %49, %51
  %.0.i = phi ptr [ %18, %17 ], [ %33, %32 ], [ %50, %49 ], [ %.3.i, %51 ]
  store ptr %.0.i, ptr %15, align 8
  %67 = getelementptr inbounds nuw i8, ptr %8, i64 64
  store i64 0, ptr %67, align 8
  %.not = icmp ult i64 %3, %2
  br i1 %.not, label %68, label %74, !prof !5

68:                                               ; preds = %nextFloodDetect.exit
  %69 = load i32, ptr %0, align 16
  %70 = zext i32 %69 to i64
  %71 = getelementptr inbounds nuw [19 x ptr], ptr @funcs, i64 0, i64 %70
  %72 = load ptr, ptr %71, align 8
  %73 = call i32 %72(ptr noundef nonnull %0, ptr noundef nonnull %8, i64 noundef %6) #8
  br label %74

74:                                               ; preds = %nextFloodDetect.exit, %68
  %.0 = phi i32 [ %73, %68 ], [ 0, %nextFloodDetect.exit ]
  call void @llvm.lifetime.end.p0(i64 72, ptr nonnull %8) #8
  ret i32 %.0
}